; Function Attrs: nounwind uwtable
define noundef ptr @l_MonadExcept_ofExcept___at_Lean_Widget_instRpcEncodableInteractiveTermGoal_dec____x40_Lean_Widget_InteractiveGoal___hyg_2227____spec__1(ptr noundef %0, ptr readnone captures(none) %1) local_unnamed_addr #1 {
  %3 = ptrtoint ptr %0 to i64
  %4 = and i64 %3, 1
  %.not.i24 = icmp eq i64 %4, 0
  br i1 %.not.i24, label %8, label %5

5:                                                ; preds = %2
  %6 = lshr i64 %3, 1
  %7 = trunc i64 %6 to i32
  br label %lean_obj_tag.exit

8:                                                ; preds = %2
  %9 = getelementptr i8, ptr %0, i64 4
  %.val.i = load i32, ptr %9, align 4
  %10 = lshr i32 %.val.i, 24
  br label %lean_obj_tag.exit

lean_obj_tag.exit:                                ; preds = %5, %8
  %.0.i = phi i32 [ %7, %5 ], [ %10, %8 ]
  %11 = icmp eq i32 %.0.i, 0
  %.val23 = load i32, ptr %0, align 4, !tbaa !8
  %12 = icmp eq i32 %.val23, 1
  br i1 %11, label %13, label %35

13:                                               ; preds = %lean_obj_tag.exit
  br i1 %12, label %59, label %14

14:                                               ; preds = %13
  %15 = getelementptr inbounds nuw i8, ptr %0, i64 8
  %16 = load ptr, ptr %15, align 8, !tbaa !4
  %17 = ptrtoint ptr %16 to i64
  %18 = and i64 %17, 1
  %.not32 = icmp eq i64 %18, 0
  br i1 %.not32, label %19, label %lean_inc.exit19

19:                                               ; preds = %14
  %.val.i25 = load i32, ptr %16, align 4, !tbaa !8
  %20 = icmp sgt i32 %.val.i25, 0
  br i1 %20, label %21, label %23, !prof !11

21:                                               ; preds = %19
  %22 = add nuw i32 %.val.i25, 1
  store i32 %22, ptr %16, align 4, !tbaa !8
  br label %lean_inc.exit19

23:                                               ; preds = %19
  %.not.i26 = icmp eq i32 %.val.i25, 0
  br i1 %.not.i26, label %lean_inc.exit19, label %24

24:                                               ; preds = %23
  tail call void @lean_inc_ref_cold(ptr noundef nonnull %16) #6
  br label %lean_inc.exit19

lean_inc.exit19:                                  ; preds = %24, %23, %21, %14
  br i1 %.not.i24, label %25, label %lean_dec.exit20

25:                                               ; preds = %lean_inc.exit19
  %26 = load i32, ptr %0, align 4, !tbaa !8
  %27 = icmp sgt i32 %26, 1
  br i1 %27, label %28, label %30, !prof !11

28:                                               ; preds = %25
  %29 = add nsw i32 %26, -1
  store i32 %29, ptr %0, align 4, !tbaa !8
  br label %lean_dec.exit20

30:                                               ; preds = %25
  %.not.i = icmp eq i32 %26, 0
  br i1 %.not.i, label %lean_dec.exit20, label %31

31:                                               ; preds = %30
  tail call void @lean_dec_ref_cold(ptr noundef nonnull %0) #6
  br label %lean_dec.exit20

lean_dec.exit20:                                  ; preds = %31, %30, %28, %lean_inc.exit19
  tail call void @lean_inc_heartbeat() #6
  %32 = tail call noalias ptr @mi_malloc_small(i64 noundef 16) #6
  %33 = icmp eq ptr %32, null
  br i1 %33, label %34, label %.sink.split

34:                                               ; preds = %lean_dec.exit20
  tail call void @lean_internal_panic_out_of_memory() #7
  unreachable

35:                                               ; preds = %lean_obj_tag.exit
  br i1 %12, label %59, label %36

36:                                               ; preds = %35
  %37 = getelementptr inbounds nuw i8, ptr %0, i64 8
  %38 = load ptr, ptr %37, align 8, !tbaa !4
  %39 = ptrtoint ptr %38 to i64
  %40 = and i64 %39, 1
  %.not = icmp eq i64 %40, 0
  br i1 %.not, label %41, label %lean_inc.exit

41:                                               ; preds = %36
  %.val.i27 = load i32, ptr %38, align 4, !tbaa !8
  %42 = icmp sgt i32 %.val.i27, 0
  br i1 %42, label %43, label %45, !prof !11

43:                                               ; preds = %41
  %44 = add nuw i32 %.val.i27, 1
  store i32 %44, ptr %38, align 4, !tbaa !8
  br label %lean_inc.exit

45:                                               ; preds = %41
  %.not.i28 = icmp eq i32 %.val.i27, 0
  br i1 %.not.i28, label %lean_inc.exit, label %46

46:                                               ; preds = %45
  tail call void @lean_inc_ref_cold(ptr noundef nonnull %38) #6
  br label %lean_inc.exit

lean_inc.exit:                                    ; preds = %46, %45, %43, %36
  br i1 %.not.i24, label %47, label %lean_dec.exit

47:                                               ; preds = %lean_inc.exit
  %48 = load i32, ptr %0, align 4, !tbaa !8
  %49 = icmp sgt i32 %48, 1
  br i1 %49, label %50, label %52, !prof !11

50:                                               ; preds = %47
  %51 = add nsw i32 %48, -1
  store i32 %51, ptr %0, align 4, !tbaa !8
  br label %lean_dec.exit

52:                                               ; preds = %47
  %.not.i21 = icmp eq i32 %48, 0
  br i1 %.not.i21, label %lean_dec.exit, label %53

53:                                               ; preds = %52
  tail call void @lean_dec_ref_cold(ptr noundef nonnull %0) #6
  br label %lean_dec.exit

lean_dec.exit:                                    ; preds = %53, %52, %50, %lean_inc.exit
  tail call void @lean_inc_heartbeat() #6
  %54 = tail call noalias ptr @mi_malloc_small(i64 noundef 16) #6
  %55 = icmp eq ptr %54, null
  br i1 %55, label %56, label %.sink.split

56:                                               ; preds = %lean_dec.exit
  tail call void @lean_internal_panic_out_of_memory() #7
  unreachable

.sink.split:                                      ; preds = %lean_dec.exit, %lean_dec.exit20
  %.sink39 = phi ptr [ %32, %lean_dec.exit20 ], [ %54, %lean_dec.exit ]
  %.sink36 = phi i32 [ 65552, %lean_dec.exit20 ], [ 16842768, %lean_dec.exit ]
  %.sink = phi ptr [ %16, %lean_dec.exit20 ], [ %38, %lean_dec.exit ]
  %57 = getelementptr inbounds nuw i8, ptr %.sink39, i64 4
  store i32 1, ptr %.sink39, align 4, !tbaa !8
  store i32 %.sink36, ptr %57, align 4
  %58 = getelementptr inbounds nuw i8, ptr %.sink39, i64 8
  store ptr %.sink, ptr %58, align 8, !tbaa !4
  br label %59

59:                                               ; preds = %.sink.split, %35, %13
  %.1 = phi ptr [ %0, %13 ], [ %0, %35 ], [ %.sink39, %.sink.split ]
  ret ptr %.1
}